; Function Attrs: mustprogress nounwind uwtable
define void @_ZN5faiss11IndexFlatL213clear_l2normsEv(ptr noundef nonnull align 8 dereferenceable(96) %0) local_unnamed_addr #17 align 2 personality ptr @__gxx_personality_v0 {
  %2 = getelementptr inbounds nuw i8, ptr %0, i64 72
  %3 = load ptr, ptr %2, align 8, !tbaa !65
  %4 = getelementptr inbounds nuw i8, ptr %0, i64 80
  %5 = load ptr, ptr %4, align 8, !tbaa !97
  %.not.i.i = icmp eq ptr %5, %3
  br i1 %.not.i.i, label %_ZNSt6vectorIfSaIfEE5clearEv.exit, label %6

6:                                                ; preds = %1
  store ptr %3, ptr %4, align 8, !tbaa !97
  br label %_ZNSt6vectorIfSaIfEE5clearEv.exit

_ZNSt6vectorIfSaIfEE5clearEv.exit:                ; preds = %1, %6
  %7 = getelementptr inbounds nuw i8, ptr %0, i64 88
  %8 = load ptr, ptr %7, align 8, !tbaa !67
  %9 = icmp eq ptr %8, %3
  br i1 %9, label %_ZNSt6vectorIfSaIfEE13shrink_to_fitEv.exit, label %10

10:                                               ; preds = %_ZNSt6vectorIfSaIfEE5clearEv.exit
  %11 = tail call noundef zeroext i1 @_ZNSt19__shrink_to_fit_auxISt6vectorIfSaIfEELb1EE8_S_do_itERS2_(ptr noundef nonnull align 8 dereferenceable(24) %2) #21
  br label %_ZNSt6vectorIfSaIfEE13shrink_to_fitEv.exit

_ZNSt6vectorIfSaIfEE13shrink_to_fitEv.exit:       ; preds = %_ZNSt6vectorIfSaIfEE5clearEv.exit, %10
  ret void
}